target datalayout = "e-m:e-p270:32:32-p271:32:32-p272:64:64-i64:64-i128:128-f80:128-n8:16:32:64-S128"
target triple = "x86_64-unknown-linux-gnu"

%"class.zmq::ws_decoder_t" = type { %"class.zmq::decoder_base_t", [8 x i8], i8, %"class.zmq::msg_t", i8, i64, i8, i64, i32, [4 x i8] }
%"class.zmq::decoder_base_t" = type { %"class.zmq::i_decoder", { i64, i64 }, ptr, i64, %"class.zmq::shared_message_memory_allocator", ptr }
%"class.zmq::i_decoder" = type { ptr }
%"class.zmq::shared_message_memory_allocator" = type { ptr, i64, i64, ptr, i64 }
%"class.zmq::msg_t" = type { %union.anon }
%union.anon = type { %struct.anon }
%struct.anon = type { ptr, [34 x i8], i8, i8, i32, %"union.zmq::msg_t::group_t" }
%"union.zmq::msg_t::group_t" = type { %struct.anon.1 }
%struct.anon.1 = type { i8, ptr }

; Function Attrs: mustprogress nounwind uwtable
define linkonce_odr void @_ZN3zmq14decoder_base_tINS_12ws_decoder_tENS_31shared_message_memory_allocatorEE9next_stepEPvmMS1_FiPKhE(ptr noundef nonnull align 8 dereferenceable(88) %this, ptr noundef %read_pos_, i64 noundef %to_read_, i64 %next_.coerce0, i64 %next_.coerce1) #5 comdat align 2 {
entry:
  %next_ = alloca { i64, i64 }, align 8
  %this.addr = alloca ptr, align 8
  %read_pos_.addr = alloca ptr, align 8
  %to_read_.addr = alloca i64, align 8
  %next_.addr = alloca { i64, i64 }, align 8
  %0 = getelementptr inbounds { i64, i64 }, ptr %next_, i32 0, i32 0
  store i64 %next_.coerce0, ptr %0, align 8
  %1 = getelementptr inbounds { i64, i64 }, ptr %next_, i32 0, i32 1
  store i64 %next_.coerce1, ptr %1, align 8
  %next_1 = load { i64, i64 }, ptr %next_, align 8
  store ptr %this, ptr %this.addr, align 8
  store ptr %read_pos_, ptr %read_pos_.addr, align 8
  store i64 %to_read_, ptr %to_read_.addr, align 8
  store { i64, i64 } %next_1, ptr %next_.addr, align 8
  %this2 = load ptr, ptr %this.addr, align 8
  %2 = load ptr, ptr %read_pos_.addr, align 8
  %_read_pos = getelementptr inbounds %"class.zmq::decoder_base_t", ptr %this2, i32 0, i32 2
  store ptr %2, ptr %_read_pos, align 8
  %3 = load i64, ptr %to_read_.addr, align 8
  %_to_read = getelementptr inbounds %"class.zmq::decoder_base_t", ptr %this2, i32 0, i32 3
  store i64 %3, ptr %_to_read, align 8
  %4 = load { i64, i64 }, ptr %next_.addr, align 8
  %_next = getelementptr inbounds %"class.zmq::decoder_base_t", ptr %this2, i32 0, i32 1
  store { i64, i64 } %4, ptr %_next, align 8
  ret void
}

; Function Attrs: mustprogress uwtable
define noundef i32 @_ZN3zmq12ws_decoder_t16short_size_readyEPKh(ptr noundef nonnull align 8 dereferenceable(208) %this, ptr noundef %read_from_) #0 align 2 {
entry:
  %retval = alloca i32, align 4
  %this.addr = alloca ptr, align 8
  %read_from_.addr = alloca ptr, align 8
  %coerce = alloca { i64, i64 }, align 8
  %coerce13 = alloca { i64, i64 }, align 8
  store ptr %this, ptr %this.addr, align 8
  store ptr %read_from_, ptr %read_from_.addr, align 8
  %this1 = load ptr, ptr %this.addr, align 8
  %_tmpbuf = getelementptr inbounds %"class.zmq::ws_decoder_t", ptr %this1, i32 0, i32 1
  %arrayidx = getelementptr inbounds [8 x i8], ptr %_tmpbuf, i64 0, i64 0
  %0 = load i8, ptr %arrayidx, align 8
  %conv = zext i8 %0 to i32
  %shl = shl i32 %conv, 8
  %_tmpbuf2 = getelementptr inbounds %"class.zmq::ws_decoder_t", ptr %this1, i32 0, i32 1
  %arrayidx3 = getelementptr inbounds [8 x i8], ptr %_tmpbuf2, i64 0, i64 1
  %1 = load i8, ptr %arrayidx3, align 1
  %conv4 = zext i8 %1 to i32
  %or = or i32 %shl, %conv4
  %conv5 = sext i32 %or to i64
  %_size = getelementptr inbounds %"class.zmq::ws_decoder_t", ptr %this1, i32 0, i32 7
  store i64 %conv5, ptr %_size, align 8
  %_must_mask = getelementptr inbounds %"class.zmq::ws_decoder_t", ptr %this1, i32 0, i32 6
  %2 = load i8, ptr %_must_mask, align 8
  %tobool = trunc i8 %2 to i1
  br i1 %tobool, label %if.then, label %if.else

if.then:                                          ; preds = %entry
  %_tmpbuf6 = getelementptr inbounds %"class.zmq::ws_decoder_t", ptr %this1, i32 0, i32 1
  %arraydecay = getelementptr inbounds [8 x i8], ptr %_tmpbuf6, i64 0, i64 0
  store { i64, i64 } { i64 ptrtoint (ptr @_ZN3zmq12ws_decoder_t10mask_readyEPKh to i64), i64 0 }, ptr %coerce, align 8
  %3 = getelementptr inbounds { i64, i64 }, ptr %coerce, i32 0, i32 0
  %4 = load i64, ptr %3, align 8
  %5 = getelementptr inbounds { i64, i64 }, ptr %coerce, i32 0, i32 1
  %6 = load i64, ptr %5, align 8
  call void @_ZN3zmq14decoder_base_tINS_12ws_decoder_tENS_31shared_message_memory_allocatorEE9next_stepEPvmMS1_FiPKhE(ptr noundef nonnull align 8 dereferenceable(88) %this1, ptr noundef %arraydecay, i64 noundef 4, i64 %4, i64 %6)
  br label %if.end16

if.else:                                          ; preds = %entry
  %_opcode = getelementptr inbounds %"class.zmq::ws_decoder_t", ptr %this1, i32 0, i32 8
  %7 = load i32, ptr %_opcode, align 8
  %cmp = icmp eq i32 %7, 2
  br i1 %cmp, label %if.then7, label %if.else14

if.then7:                                         ; preds = %if.else
  %_size8 = getelementptr inbounds %"class.zmq::ws_decoder_t", ptr %this1, i32 0, i32 7
  %8 = load i64, ptr %_size8, align 8
  %cmp9 = icmp eq i64 %8, 0
  br i1 %cmp9, label %if.then10, label %if.end

if.then10:                                        ; preds = %if.then7
  store i32 -1, ptr %retval, align 4
  br label %return

if.end:                                           ; preds = %if.then7
  %_tmpbuf11 = getelementptr inbounds %"class.zmq::ws_decoder_t", ptr %this1, i32 0, i32 1
  %arraydecay12 = getelementptr inbounds [8 x i8], ptr %_tmpbuf11, i64 0, i64 0
  store { i64, i64 } { i64 ptrtoint (ptr @_ZN3zmq12ws_decoder_t11flags_readyEPKh to i64), i64 0 }, ptr %coerce13, align 8
  %9 = getelementptr inbounds { i64, i64 }, ptr %coerce13, i32 0, i32 0
  %10 = load i64, ptr %9, align 8
  %11 = getelementptr inbounds { i64, i64 }, ptr %coerce13, i32 0, i32 1
  %12 = load i64, ptr %11, align 8
  call void @_ZN3zmq14decoder_base_tINS_12ws_decoder_tENS_31shared_message_memory_allocatorEE9next_stepEPvmMS1_FiPKhE(ptr noundef nonnull align 8 dereferenceable(88) %this1, ptr noundef %arraydecay12, i64 noundef 1, i64 %10, i64 %12)
  br label %if.end15

if.else14:                                        ; preds = %if.else
  %13 = load ptr, ptr %read_from_.addr, align 8
  %call = call noundef i32 @_ZN3zmq12ws_decoder_t10size_readyEPKh(ptr noundef nonnull align 8 dereferenceable(208) %this1, ptr noundef %13)
  store i32 %call, ptr %retval, align 4
  br label %return

if.end15:                                         ; preds = %if.end
  br label %if.end16

if.end16:                                         ; preds = %if.end15, %if.then
  store i32 0, ptr %retval, align 4
  br label %return

return:                                           ; preds = %if.end16, %if.else14, %if.then10
  %14 = load i32, ptr %retval, align 4
  ret i32 %14
}