; Function Attrs: mustprogress uwtable
define noundef i32 @_ZN3zmq12ws_decoder_t16short_size_readyEPKh(ptr noundef nonnull align 8 dereferenceable(208) %this, ptr noundef %read_from_) #0 align 2 {
entry:
  %_tmpbuf = getelementptr inbounds i8, ptr %this, i64 88
  %0 = load i8, ptr %_tmpbuf, align 8
  %conv = zext i8 %0 to i64
  %shl = shl nuw nsw i64 %conv, 8
  %arrayidx3 = getelementptr inbounds i8, ptr %this, i64 89
  %1 = load i8, ptr %arrayidx3, align 1
  %conv4 = zext i8 %1 to i64
  %or = or disjoint i64 %shl, %conv4
  %_size = getelementptr inbounds i8, ptr %this, i64 192
  store i64 %or, ptr %_size, align 8
  %_must_mask = getelementptr inbounds i8, ptr %this, i64 184
  %2 = load i8, ptr %_must_mask, align 8
  %3 = and i8 %2, 1
  %tobool.not = icmp eq i8 %3, 0
  br i1 %tobool.not, label %if.else, label %if.then

if.then:                                          ; preds = %entry
  %_read_pos.i = getelementptr inbounds i8, ptr %this, i64 24
  store ptr %_tmpbuf, ptr %_read_pos.i, align 8
  %_to_read.i = getelementptr inbounds i8, ptr %this, i64 32
  store i64 4, ptr %_to_read.i, align 8
  %_next.i = getelementptr inbounds i8, ptr %this, i64 8
  store i64 ptrtoint (ptr @_ZN3zmq12ws_decoder_t10mask_readyEPKh to i64), ptr %_next.i, align 8
  %_next.repack1.i = getelementptr inbounds i8, ptr %this, i64 16
  store i64 0, ptr %_next.repack1.i, align 8
  br label %return

if.else:                                          ; preds = %entry
  %_opcode = getelementptr inbounds i8, ptr %this, i64 200
  %4 = load i32, ptr %_opcode, align 8
  %cmp = icmp eq i32 %4, 2
  br i1 %cmp, label %if.then7, label %if.else14

if.then7:                                         ; preds = %if.else
  %cmp9 = icmp eq i64 %or, 0
  br i1 %cmp9, label %return, label %if.end

if.end:                                           ; preds = %if.then7
  %_read_pos.i1 = getelementptr inbounds i8, ptr %this, i64 24
  store ptr %_tmpbuf, ptr %_read_pos.i1, align 8
  %_to_read.i2 = getelementptr inbounds i8, ptr %this, i64 32
  store i64 1, ptr %_to_read.i2, align 8
  %_next.i3 = getelementptr inbounds i8, ptr %this, i64 8
  store i64 ptrtoint (ptr @_ZN3zmq12ws_decoder_t11flags_readyEPKh to i64), ptr %_next.i3, align 8
  %_next.repack1.i4 = getelementptr inbounds i8, ptr %this, i64 16
  store i64 0, ptr %_next.repack1.i4, align 8
  br label %return

if.else14:                                        ; preds = %if.else
  %call = tail call noundef i32 @_ZN3zmq12ws_decoder_t10size_readyEPKh(ptr noundef nonnull align 8 dereferenceable(208) %this, ptr noundef %read_from_), !range !4
  br label %return

return:                                           ; preds = %if.then, %if.end, %if.then7, %if.else14
  %retval.0 = phi i32 [ %call, %if.else14 ], [ -1, %if.then7 ], [ 0, %if.end ], [ 0, %if.then ]
  ret i32 %retval.0
}